MPASM 5.77  /HOME/VILL4IN/MPLABXPROJECTS/PRA   9-6-2022  13:36:31         PAGE  1


LOC  OBJECT CODE     LINE SOURCE TEXT
  VALUE

                      00001 ;;;;;;;;;;;;;;;;;;;;;;;;;;;;;;;;;;;;;;;;;;;;;;;;;;;;;;;;;;;;;;;;;;;;;;;;;;;;;;;;
                      00002 ;                   
                      00003 ;                   PRACTICA 1: USO DE PUERTOS Y OPERACIONES
                      00004 ;   
                      00005 ;       FECHA: 06/09/22
                      00006 ;
                      00007 ;;;;;;;;;;;;;;;;;;;;;;;;;;;;;;;;;;;;;;;;;;;;;;;;;;;;;;;;;;;;;;;;;;;;;;;;;;;;;;;;
                      00008     
                      00009                 ;#INCLUDE <../ENCABEZADO.asm>
                      00010                 #INCLUDE <../ENCABEZADO.inc>
                      00001 ;;;;;;;;;;;;;;;;;;;;;;;;;;;;;;;;;;;;;;;;;;;;;;;;;;;;;;;;;;;;;;;;;;;;;;;;;;;;;;;;
                      00002 ;               
                      00003 ;                               ENCABEZADO 
                      00004 ;    
                      00005 ;   Este sera el encabezado que contendra las configuraciones por defecto
                      00006 ;   durante el curso
                      00007 ;    
                      00008 ;   uC : pic16f887
                      00009 ;
                      00010 ;;;;;;;;;;;;;;;;;;;;;;;;;;;;;;;;;;;;;;;;;;;;;;;;;;;;;;;;;;;;;;;;;;;;;;;;;;;;;;;;
                      00011     
                      00012                     PROCESSOR   16F887
2007   23E4           00013                     __CONFIG    0X2007,0X23E4
2008   3FFF           00014                     __CONFIG    0X2008,0X3FFF
                      00015 ;   TODO: DESCRIPCION DE LOS REGISTROS DE CONNFIGURACION
                      00016                     
                      00017                     INCLUDE     <p16f887.inc>
                      00001         LIST
                      00002 
                      00003 ;==========================================================================
                      00004 ; Build date : Nov 22 2017
                      00005 ;  MPASM PIC16F887 processor include
                      00006 ; 
                      00007 ;  (c) Copyright 1999-2017 Microchip Technology, All rights reserved
                      00008 ;==========================================================================
                      00009 
                      00810         LIST
                      00018                     ORG         0X0000
0000   0185           00019                     CLRF        PORTA
0001   0186           00020                     CLRF        PORTB
0002   0187           00021                     CLRF        PORTC
0003   0188           00022                     CLRF        PORTD
0004   0189           00023                     CLRF        PORTE
0005   1683           00024                     BSF         STATUS,RP0
0006   1703           00025                     BSF         STATUS,RP1
Message[302]: Register in operand not in bank 0.  Ensure that bank bits are correct.
0007   0188           00026                     CLRF        ANSEL
Message[302]: Register in operand not in bank 0.  Ensure that bank bits are correct.
0008   0189           00027                     CLRF        ANSELH
0009   1303           00028                     BCF         STATUS,RP1      ; BANCO 1
                      00011                 ; NOS ENCONTRAMOS EN EL REGISTRO 1    
                      00012 ;   DEFINIMOS LA VARIABLES/REGISTROS DE RAM QUE USAREMOS
                      00013     
MPASM 5.77  /HOME/VILL4IN/MPLABXPROJECTS/PRA   9-6-2022  13:36:31         PAGE  2


LOC  OBJECT CODE     LINE SOURCE TEXT
  VALUE

  00000020            00014 REG1    EQU         0X20
  00000021            00015 REG2    EQU         0X21
  00000022            00016 RESU    EQU         0X22
  00000023            00017 RESU2   EQU         0X23 
  00000024            00018 AUX     EQU         0X24
                      00019                 
                      00020 ;   SOLO HABRAN DOS PUERTOS CONFIGURADOS DE SALIDA, EL PUERTO B ES CONFIGURADO
                      00021 ;   COMO 0X0F, UNA MITAD DE ENTRADAS Y LA OTRA DE SALIDAS, MIENTRAS QUE EL
                      00022 ;   PUERTO B TIENE TODOS SUS PINES COMO SALIDAS
Message[302]: Register in operand not in bank 0.  Ensure that bank bits are correct.
000A   0187           00023                     CLRF        TRISC
000B   300F           00024                     MOVLW       0X0F
Message[302]: Register in operand not in bank 0.  Ensure that bank bits are correct.
000C   0086           00025                     MOVWF       TRISB
                      00026                     
000D   1283           00027                     BCF         STATUS,RP0          ; BANCO 0
                      00028                     
                      00029 ;   INICIO DEL PROGRAMA PRINCIPAL
                      00030                     
                      00031                     ; Test
                      00032 ;                   MOVLW       0x0F
                      00033 ;                   MOVWF       PORTC
                      00034 ;                   MOVLW       B'10000000'
                      00035 ;                   MOVWF       PORTB
                      00036 ;                   GOTO        $
                      00037                     
000E   3000           00038                     MOVLW       0X00
000F   0087           00039                     MOVWF       PORTC
                      00040                     
0010   3000           00041                     MOVLW       b'00000000'
0011   0086           00042                     MOVWF       PORTB
                      00043                     
0012   1C06           00044                     BTFSS       PORTB,0
0013   2???           00045                     GOTO        $-1
                      00046                     
0014   0808           00047                     MOVF        PORTD,W
0015   00A0           00048                     MOVWF       REG1            ; GUARDAMOS EL PRIMER VALORES
0016   0820           00049                     MOVF        REG1,W
0017   0087           00050                     MOVWF       PORTC
                      00051                     
                      00052                     ;   AHORA EL uC DEBE ESPERAR HASTA QUE ALGUNA DE LAS
                      00053                     ;   ENTRADAS EN PB.1,2,3 SEA 1
                      00054                     
0018   1886           00055 ELECCION:           BTFSC       PORTB,1
0019   2???           00056                     GOTO        PB1_HIGH
001A   1906           00057                     BTFSC       PORTB,2
001B   2???           00058                     GOTO        PB2_HIGH
001C   1986           00059                     BTFSC       PORTB,3
001D   2???           00060                     GOTO        PB3_HIGH
001E   2???           00061                     GOTO        ELECCION
                      00062 
001F   0822           00063 CONTINUA:           MOVF        RESU,W
0020   0087           00064                     MOVWF       PORTC
MPASM 5.77  /HOME/VILL4IN/MPLABXPROJECTS/PRA   9-6-2022  13:36:31         PAGE  3


LOC  OBJECT CODE     LINE SOURCE TEXT
  VALUE

                      00065                     
                      00066                     ;   AHORA HAY QUE ESPERAR HASTA QUE PB.0 = 1
0021   1C06           00067                     BTFSS       PORTB,0
0022   2???           00068                     GOTO        $-1
0023   2???           00069                     GOTO        DIVISION
                      00070                     
                      00071 ;                   FIN DEL PROGRAMA
0024   2???           00072 FIN:                GOTO        $
                      00073                     
                      00074     
0025   0808           00075 PB1_HIGH:           MOVF        PORTD,W
0026   00A1           00076                     MOVWF       REG2            ; GUARDAMOS EL SEGUNDO VALOR
                      00077                     
                      00078                     ;   REALIZAMOS LA OPERACION QUE SE NOS SOLICITA
                      00079                     ;   RESU = REG1 + REG2
0027   0820           00080                     MOVF        REG1,W
0028   0721           00081                     ADDWF       REG2,W
0029   00A2           00082                     MOVWF       RESU
002A   3080           00083                     MOVLW       B'10000000'     ; SE PRECARGA EL VALOR PARA B7=1
002B   1803           00084                     BTFSC       STATUS,C
002C   0086           00085                     MOVWF       PORTB
002D   2???           00086                     GOTO        CONTINUA
                      00087 
002E   0808           00088 PB2_HIGH:           MOVF        PORTD,W
002F   00A1           00089                     MOVWF       REG2            ; GUARDAMOS EL SEGUNDO VALOR
                      00090                     
                      00091                     ;   REALIZAMOS LA OPERACION QUE SE NOS SOLICITA
                      00092                     ;   RESU = REG1 - REG2
0030   0821           00093                     MOVF        REG2,W
0031   0220           00094                     SUBWF       REG1,W
0032   00A2           00095                     MOVWF       RESU 
0033   1C03           00096                     BTFSS       STATUS,C        ; SI OCURRIO UN ACARREO SE DIRIGE 
0034   2???           00097                     GOTO        NEGATIVO        ; HACIA LA SUBRUTINA
0035   2???           00098 FIN_RESTA:          GOTO        CONTINUA
                      00099                     
0036   3080           00100 NEGATIVO:           MOVLW       B'10000000'     ; SE PRECARGA EL VALOR PARA B7=1
0037   0086           00101                     MOVWF       PORTB
0038   0822           00102                     MOVF        RESU,W
0039   3C00           00103                     SUBLW       .0
003A   00A2           00104                     MOVWF       RESU
003B   0822           00105                     MOVF        RESU,W
003C   0087           00106                     MOVWF       PORTC
003D   2???           00107                     GOTO        FIN_RESTA
                      00108                     
003E   0808           00109 PB3_HIGH:           MOVF        PORTD,W
003F   00A1           00110                     MOVWF       REG2            ; GUARDAMOS EL SEGUNDO VALOR
                      00111                     
                      00112                     ;   REALIZAMOS LA OPERACION QUE SE NOS SOLICITA
                      00113                     ;   RESU = REG1*REG2
0040   3000           00114                     MOVLW       0X00
0041   00A2           00115                     MOVWF       RESU
0042   0821           00116                     MOVF        REG2,W
0043   00A4           00117                     MOVWF       AUX             ; AUX = REG2
MPASM 5.77  /HOME/VILL4IN/MPLABXPROJECTS/PRA   9-6-2022  13:36:31         PAGE  4


LOC  OBJECT CODE     LINE SOURCE TEXT
  VALUE

                      00118                     
                      00119                     ; VERIFICAMOS SI ALGUNO DE LOS REG SON CERO
0044   30FF           00120                     MOVLW       0XFF
0045   0520           00121                     ANDWF       REG1,W
0046   1903           00122                     BTFSC       STATUS,Z
0047   2???           00123                     GOTO        CONTINUA
0048   30FF           00124                     MOVLW       0XFF
0049   0521           00125                     ANDWF       REG2,W
004A   1903           00126                     BTFSC       STATUS,Z
004B   2???           00127                     GOTO        CONTINUA
                      00128                     ;   ALGORITMO DE MULTIPLICACION: REG1*REG2
004C   0820           00129 MULTI:              MOVF        REG1,W
004D   07A2           00130                     ADDWF       RESU,F
004E   3080           00131                     MOVLW       B'10000000'     
004F   1803           00132                     BTFSC       STATUS,C        ; OCURRIO UN ACARREO?
0050   0086           00133                     MOVWF       PORTB
0051   03A4           00134                     DECF        AUX,F
0052   1D03           00135                     BTFSS       STATUS,Z
0053   2???           00136                     GOTO        MULTI
0054   2???           00137                     GOTO        CONTINUA
                      00138                     
                      00139             
0055                  00140 DIVISION:           ;MOVF       PORTD,W         ; GUARDAMOS REG2
                      00141                     ;MOVWF      REG2
0055   3000           00142                     MOVLW       0X00            ; lIMPIAMOS EL ACARREO
0056   0086           00143                     MOVWF       PORTB
0057   0820           00144                     MOVF        REG1,W          ; RESU2 = REG1/REG2
0058   00A4           00145                     MOVWF       AUX
0059   3000           00146                     MOVLW       0X00
005A   00A3           00147                     MOVWF       RESU2
                      00148                     ; VERIFICAMOS SI ALGUNO DE LOS REG SON CERO
005B   30FF           00149                     MOVLW       0XFF
005C   0521           00150                     ANDWF       REG2,W          
005D   1903           00151                     BTFSC       STATUS,Z        ; ES CERO EL DENOMINADOR?
005E   2???           00152                     GOTO        DIV_CERO
005F   30FF           00153                     MOVLW       0XFF
0060   0520           00154                     ANDWF       REG1,W
0061   1903           00155                     BTFSC       STATUS,Z        ; ES CERO EL NUMERADOR?
0062   2???           00156                     GOTO        SALIDA
                      00157                     ;   ALGORITMO DE DIVISION: REG1/REG2
                      00158                     ;   EXISTEN 2 POSIBILIDADES:
                      00159                     ;   1. QUE AUX SE VUELVA NEGATIVO -> CON RESIDUO 
                      00160                     ;   2. QUE AUX SE VUELVA CERO -> SIN RESIDUO
0063   0821           00161 DIVI:               MOVF        REG2,W
0064   02A4           00162                     SUBWF       AUX,F
0065   1C03           00163                     BTFSS       STATUS,C        ; ES NEGATIVO? CON RESIDUO
0066   2???           00164                     GOTO        CON_RES
0067   1903           00165                     BTFSC       STATUS,Z        ; ES CERO? NO RESIDUO
0068   2???           00166                     GOTO        SIN_RES
0069   0AA3           00167                     INCF        RESU2,F
006A   2???           00168                     GOTO        DIVI
006B   30FF           00169 DIV_CERO:           MOVLW       0XFF
006C   00A3           00170                     MOVWF       RESU2
MPASM 5.77  /HOME/VILL4IN/MPLABXPROJECTS/PRA   9-6-2022  13:36:31         PAGE  5


LOC  OBJECT CODE     LINE SOURCE TEXT
  VALUE

006D   3080           00171                     MOVLW       B'10000000'     ; DIV ENTRE CERO
006E   0086           00172                     MOVWF       PORTB
006F   2???           00173                     GOTO        SALIDA
0070                  00174 CON_RES:            ;MOVLW      0XFF
                      00175                     ;ANDWF      RESU2,W
                      00176                     ;BTFSS      STATUS,Z
                      00177                     ;NOP;INCF   RESU2,F
0070   3080           00178                     MOVLW       B'10000000'     ; SE PRECARGA EL VALOR PARA B7=1
0071   0086           00179                     MOVWF       PORTB
0072   2???           00180                     GOTO        SALIDA
0073   0AA3           00181 SIN_RES:            INCF        RESU2,F
0074   0823           00182 SALIDA:             MOVF        RESU2,W
0075   0087           00183                     MOVWF       PORTC
0076   2???           00184                     GOTO        FIN
                      00185                     
23E4 3FFF             00186                     END
MPASM 5.77  /HOME/VILL4IN/MPLABXPROJECTS/PRA   9-6-2022  13:36:31         PAGE  6


SYMBOL TABLE
  LABEL                             VALUE 

ABDEN                             00000000
ABDOVF                            00000007
ACKDT                             00000005
ACKEN                             00000004
ACKSTAT                           00000006
ADCON0                            0000001F
ADCON1                            0000009F
ADCS0                             00000006
ADCS1                             00000007
ADDEN                             00000003
ADFM                              00000007
ADIE                              00000006
ADIF                              00000006
ADON                              00000000
ADRESH                            0000001E
ADRESL                            0000009E
ANS0                              00000000
ANS1                              00000001
ANS10                             00000002
ANS11                             00000003
ANS12                             00000004
ANS13                             00000005
ANS2                              00000002
ANS3                              00000003
ANS4                              00000004
ANS5                              00000005
ANS6                              00000006
ANS7                              00000007
ANS8                              00000000
ANS9                              00000001
ANSEL                             00000188
ANSELH                            00000189
AUX                               00000024
BAUDCTL                           00000187
BCLIE                             00000003
BCLIF                             00000003
BF                                00000000
BRG0                              00000000
BRG1                              00000001
BRG10                             00000002
BRG11                             00000003
BRG12                             00000004
BRG13                             00000005
BRG14                             00000006
BRG15                             00000007
BRG16                             00000003
BRG2                              00000002
BRG3                              00000003
BRG4                              00000004
BRG5                              00000005
BRG6                              00000006
BRG7                              00000007
BRG8                              00000000
MPASM 5.77  /HOME/VILL4IN/MPLABXPROJECTS/PRA   9-6-2022  13:36:31         PAGE  7


SYMBOL TABLE
  LABEL                             VALUE 

BRG9                              00000001
BRGH                              00000002
C                                 00000000
C1CH0                             00000000
C1CH1                             00000001
C1IE                              00000005
C1IF                              00000005
C1OE                              00000005
C1ON                              00000007
C1OUT                             00000006
C1POL                             00000004
C1R                               00000002
C1RSEL                            00000005
C1SEN                             00000005
C2CH0                             00000000
C2CH1                             00000001
C2IE                              00000006
C2IF                              00000006
C2OE                              00000005
C2ON                              00000007
C2OUT                             00000006
C2POL                             00000004
C2R                               00000002
C2REN                             00000004
C2RSEL                            00000004
C2SYNC                            00000000
CCP1CON                           00000017
CCP1IE                            00000002
CCP1IF                            00000002
CCP1M0                            00000000
CCP1M1                            00000001
CCP1M2                            00000002
CCP1M3                            00000003
CCP1X                             00000005
CCP1Y                             00000004
CCP2CON                           0000001D
CCP2IE                            00000000
CCP2IF                            00000000
CCP2M0                            00000000
CCP2M1                            00000001
CCP2M2                            00000002
CCP2M3                            00000003
CCP2X                             00000005
CCP2Y                             00000004
CCPR1                             00000015
CCPR1H                            00000016
CCPR1L                            00000015
CCPR2                             0000001B
CCPR2H                            0000001C
CCPR2L                            0000001B
CHS0                              00000002
CHS1                              00000003
CHS2                              00000004
MPASM 5.77  /HOME/VILL4IN/MPLABXPROJECTS/PRA   9-6-2022  13:36:31         PAGE  8


SYMBOL TABLE
  LABEL                             VALUE 

CHS3                              00000005
CKE                               00000006
CKP                               00000004
CM1CON0                           00000107
CM2CON0                           00000108
CM2CON1                           00000109
CONTINUA                          0000001F
CON_RES                           00000070
CREN                              00000004
CSRC                              00000007
D                                 00000005
DATA_ADDRESS                      00000005
DC                                00000001
DC1B0                             00000004
DC1B1                             00000005
DC2B0                             00000004
DC2B1                             00000005
DIVI                              00000063
DIVISION                          00000055
DIV_CERO                          0000006B
D_A                               00000005
D_NOT_A                           00000005
ECCPAS                            0000009C
ECCPAS0                           00000004
ECCPAS1                           00000005
ECCPAS2                           00000006
ECCPASE                           00000007
EEADR                             0000010D
EEADRH                            0000010F
EECON1                            0000018C
EECON2                            0000018D
EEDAT                             0000010C
EEDATA                            0000010C
EEDATH                            0000010E
EEIE                              00000004
EEIF                              00000004
EEPGD                             00000007
ELECCION                          00000018
F                                 00000001
FERR                              00000002
FIN                               00000024
FIN_RESTA                         00000035
FSR                               00000004
FVREN                             00000000
GCEN                              00000007
GIE                               00000007
GO                                00000001
GO_DONE                           00000001
GO_NOT_DONE                       00000001
HTS                               00000002
I2C_DATA                          00000005
I2C_READ                          00000002
I2C_START                         00000003
MPASM 5.77  /HOME/VILL4IN/MPLABXPROJECTS/PRA   9-6-2022  13:36:31         PAGE  9


SYMBOL TABLE
  LABEL                             VALUE 

I2C_STOP                          00000004
INDF                              00000000
INTCON                            0000000B
INTE                              00000004
INTEDG                            00000006
INTF                              00000001
IOCB                              00000096
IOCB0                             00000000
IOCB1                             00000001
IOCB2                             00000002
IOCB3                             00000003
IOCB4                             00000004
IOCB5                             00000005
IOCB6                             00000006
IOCB7                             00000007
IRCF0                             00000004
IRCF1                             00000005
IRCF2                             00000006
IRP                               00000007
LTS                               00000001
MC1OUT                            00000007
MC2OUT                            00000006
MSK                               00000093
MSK0                              00000000
MSK1                              00000001
MSK2                              00000002
MSK3                              00000003
MSK4                              00000004
MSK5                              00000005
MSK6                              00000006
MSK7                              00000007
MULTI                             0000004C
NEGATIVO                          00000036
NOT_A                             00000005
NOT_ADDRESS                       00000005
NOT_BO                            00000000
NOT_BOR                           00000000
NOT_DONE                          00000001
NOT_PD                            00000003
NOT_POR                           00000001
NOT_RBPU                          00000007
NOT_RC8                           00000006
NOT_T1SYNC                        00000002
NOT_TO                            00000004
NOT_TX8                           00000006
NOT_W                             00000002
NOT_WRITE                         00000002
OERR                              00000001
OPTION_REG                        00000081
OSCCON                            0000008F
OSCTUNE                           00000090
OSFIE                             00000007
OSFIF                             00000007
MPASM 5.77  /HOME/VILL4IN/MPLABXPROJECTS/PRA   9-6-2022  13:36:31         PAGE 10


SYMBOL TABLE
  LABEL                             VALUE 

OSTS                              00000003
P                                 00000004
P1M0                              00000006
P1M1                              00000007
PB1_HIGH                          00000025
PB2_HIGH                          0000002E
PB3_HIGH                          0000003E
PCL                               00000002
PCLATH                            0000000A
PCON                              0000008E
PDC0                              00000000
PDC1                              00000001
PDC2                              00000002
PDC3                              00000003
PDC4                              00000004
PDC5                              00000005
PDC6                              00000006
PEIE                              00000006
PEN                               00000002
PIE1                              0000008C
PIE2                              0000008D
PIR1                              0000000C
PIR2                              0000000D
PORTA                             00000005
PORTB                             00000006
PORTC                             00000007
PORTD                             00000008
PORTE                             00000009
PR2                               00000092
PRSEN                             00000007
PS0                               00000000
PS1                               00000001
PS2                               00000002
PSA                               00000003
PSSAC0                            00000002
PSSAC1                            00000003
PSSBD0                            00000000
PSSBD1                            00000001
PSTRCON                           0000009D
PULSR                             00000002
PULSS                             00000003
PWM1CON                           0000009B
R                                 00000002
RA0                               00000000
RA1                               00000001
RA2                               00000002
RA3                               00000003
RA4                               00000004
RA5                               00000005
RA6                               00000006
RA7                               00000007
RB0                               00000000
RB1                               00000001
MPASM 5.77  /HOME/VILL4IN/MPLABXPROJECTS/PRA   9-6-2022  13:36:31         PAGE 11


SYMBOL TABLE
  LABEL                             VALUE 

RB2                               00000002
RB3                               00000003
RB4                               00000004
RB5                               00000005
RB6                               00000006
RB7                               00000007
RBIE                              00000003
RBIF                              00000000
RC0                               00000000
RC1                               00000001
RC2                               00000002
RC3                               00000003
RC4                               00000004
RC5                               00000005
RC6                               00000006
RC7                               00000007
RC8_9                             00000006
RC9                               00000006
RCD8                              00000000
RCEN                              00000003
RCIDL                             00000006
RCIE                              00000005
RCIF                              00000005
RCREG                             0000001A
RCSTA                             00000018
RD                                00000000
RD0                               00000000
RD1                               00000001
RD2                               00000002
RD3                               00000003
RD4                               00000004
RD5                               00000005
RD6                               00000006
RD7                               00000007
RE0                               00000000
RE1                               00000001
RE2                               00000002
RE3                               00000003
READ_WRITE                        00000002
REG1                              00000020
REG2                              00000021
RESU                              00000022
RESU2                             00000023
RP0                               00000005
RP1                               00000006
RSEN                              00000001
RX9                               00000006
RX9D                              00000000
R_NOT_W                           00000002
R_W                               00000002
S                                 00000003
SALIDA                            00000074
SBOREN                            00000004
MPASM 5.77  /HOME/VILL4IN/MPLABXPROJECTS/PRA   9-6-2022  13:36:31         PAGE 12


SYMBOL TABLE
  LABEL                             VALUE 

SCKP                              00000004
SCS                               00000000
SEN                               00000000
SENDB                             00000003
SIN_RES                           00000073
SMP                               00000007
SPBRG                             00000099
SPBRGH                            0000009A
SPEN                              00000007
SR0                               00000006
SR1                               00000007
SRCON                             00000185
SREN                              00000005
SSPADD                            00000093
SSPBUF                            00000013
SSPCON                            00000014
SSPCON2                           00000091
SSPEN                             00000005
SSPIE                             00000003
SSPIF                             00000003
SSPM0                             00000000
SSPM1                             00000001
SSPM2                             00000002
SSPM3                             00000003
SSPMSK                            00000093
SSPOV                             00000006
SSPSTAT                           00000094
STATUS                            00000003
STRA                              00000000
STRB                              00000001
STRC                              00000002
STRD                              00000003
STRSYNC                           00000004
SWDTEN                            00000000
SYNC                              00000004
T0CS                              00000005
T0IE                              00000005
T0IF                              00000002
T0SE                              00000004
T1CKPS0                           00000004
T1CKPS1                           00000005
T1CON                             00000010
T1GINV                            00000007
T1GIV                             00000007
T1GSS                             00000001
T1INSYNC                          00000002
T1OSCEN                           00000003
T1SYNC                            00000002
T2CKPS0                           00000000
T2CKPS1                           00000001
T2CON                             00000012
TMR0                              00000001
TMR0IE                            00000005
MPASM 5.77  /HOME/VILL4IN/MPLABXPROJECTS/PRA   9-6-2022  13:36:31         PAGE 13


SYMBOL TABLE
  LABEL                             VALUE 

TMR0IF                            00000002
TMR1                              0000000E
TMR1CS                            00000001
TMR1GE                            00000006
TMR1H                             0000000F
TMR1IE                            00000000
TMR1IF                            00000000
TMR1L                             0000000E
TMR1ON                            00000000
TMR2                              00000011
TMR2IE                            00000001
TMR2IF                            00000001
TMR2ON                            00000002
TOUTPS0                           00000003
TOUTPS1                           00000004
TOUTPS2                           00000005
TOUTPS3                           00000006
TRISA                             00000085
TRISA0                            00000000
TRISA1                            00000001
TRISA2                            00000002
TRISA3                            00000003
TRISA4                            00000004
TRISA5                            00000005
TRISA6                            00000006
TRISA7                            00000007
TRISB                             00000086
TRISB0                            00000000
TRISB1                            00000001
TRISB2                            00000002
TRISB3                            00000003
TRISB4                            00000004
TRISB5                            00000005
TRISB6                            00000006
TRISB7                            00000007
TRISC                             00000087
TRISC0                            00000000
TRISC1                            00000001
TRISC2                            00000002
TRISC3                            00000003
TRISC4                            00000004
TRISC5                            00000005
TRISC6                            00000006
TRISC7                            00000007
TRISD                             00000088
TRISD0                            00000000
TRISD1                            00000001
TRISD2                            00000002
TRISD3                            00000003
TRISD4                            00000004
TRISD5                            00000005
TRISD6                            00000006
TRISD7                            00000007
MPASM 5.77  /HOME/VILL4IN/MPLABXPROJECTS/PRA   9-6-2022  13:36:31         PAGE 14


SYMBOL TABLE
  LABEL                             VALUE 

TRISE                             00000089
TRISE0                            00000000
TRISE1                            00000001
TRISE2                            00000002
TRISE3                            00000003
TRMT                              00000001
TUN0                              00000000
TUN1                              00000001
TUN2                              00000002
TUN3                              00000003
TUN4                              00000004
TX8_9                             00000006
TX9                               00000006
TX9D                              00000000
TXD8                              00000000
TXEN                              00000005
TXIE                              00000004
TXIF                              00000004
TXREG                             00000019
TXSTA                             00000098
UA                                00000001
ULPWUE                            00000005
ULPWUIE                           00000002
ULPWUIF                           00000002
VCFG0                             00000004
VCFG1                             00000005
VR0                               00000000
VR1                               00000001
VR2                               00000002
VR3                               00000003
VRCON                             00000097
VREN                              00000007
VROE                              00000006
VRR                               00000005
VRSS                              00000004
W                                 00000000
WCOL                              00000007
WDTCON                            00000105
WDTPS0                            00000001
WDTPS1                            00000002
WDTPS2                            00000003
WDTPS3                            00000004
WPUB                              00000095
WPUB0                             00000000
WPUB1                             00000001
WPUB2                             00000002
WPUB3                             00000003
WPUB4                             00000004
WPUB5                             00000005
WPUB6                             00000006
WPUB7                             00000007
WR                                00000001
WREN                              00000002
MPASM 5.77  /HOME/VILL4IN/MPLABXPROJECTS/PRA   9-6-2022  13:36:31         PAGE 15


SYMBOL TABLE
  LABEL                             VALUE 

WRERR                             00000003
WUE                               00000001
Z                                 00000002
_.org_0_0013                      00000013
_.org_0_0022                      00000022
_.org_0_0024                      00000024
_BOR21V                           00003EFF
_BOR40V                           00003FFF
_BOR4V_BOR21V                     00003EFF
_BOR4V_BOR40V                     00003FFF
_BOREN_NSLEEP                     00003EFF
_BOREN_OFF                        00003CFF
_BOREN_ON                         00003FFF
_BOREN_SBODEN                     00003DFF
_BOR_NSLEEP                       00003EFF
_BOR_OFF                          00003CFF
_BOR_ON                           00003FFF
_BOR_SBODEN                       00003DFF
_CONFIG1                          00002007
_CONFIG2                          00002008
_CPD_OFF                          00003FFF
_CPD_ON                           00003F7F
_CP_OFF                           00003FFF
_CP_ON                            00003FBF
_DEBUG_OFF                        00003FFF
_DEBUG_ON                         00001FFF
_DEVID1                           00002006
_EC_OSC                           00003FFB
_EXTRC                            00003FFF
_EXTRCIO                          00003FFE
_EXTRC_OSC_CLKOUT                 00003FFF
_EXTRC_OSC_NOCLKOUT               00003FFE
_FCMEN_OFF                        000037FF
_FCMEN_ON                         00003FFF
_FOSC_EC                          00003FFB
_FOSC_EXTRC_CLKOUT                00003FFF
_FOSC_EXTRC_NOCLKOUT              00003FFE
_FOSC_HS                          00003FFA
_FOSC_INTRC_CLKOUT                00003FFD
_FOSC_INTRC_NOCLKOUT              00003FFC
_FOSC_LP                          00003FF8
_FOSC_XT                          00003FF9
_HS_OSC                           00003FFA
_IDLOC0                           00002000
_IDLOC1                           00002001
_IDLOC2                           00002002
_IDLOC3                           00002003
_IESO_OFF                         00003BFF
_IESO_ON                          00003FFF
_INTOSC                           00003FFD
_INTOSCIO                         00003FFC
_INTRC_OSC_CLKOUT                 00003FFD
_INTRC_OSC_NOCLKOUT               00003FFC
MPASM 5.77  /HOME/VILL4IN/MPLABXPROJECTS/PRA   9-6-2022  13:36:31         PAGE 16


SYMBOL TABLE
  LABEL                             VALUE 

_LP_OSC                           00003FF8
_LVP_OFF                          00002FFF
_LVP_ON                           00003FFF
_MCLRE_OFF                        00003FDF
_MCLRE_ON                         00003FFF
_PWRTE_OFF                        00003FFF
_PWRTE_ON                         00003FEF
_WDTE_OFF                         00003FF7
_WDTE_ON                          00003FFF
_WDT_OFF                          00003FF7
_WDT_ON                           00003FFF
_WRT_1FOURTH                      00003BFF
_WRT_256                          00003DFF
_WRT_HALF                         000039FF
_WRT_OFF                          00003FFF
_XT_OSC                           00003FF9
__16F887                          00000001

Errors   :     0
Warnings :     0 reported,     0 suppressed
Messages :     4 reported,     0 suppressed

